; Function Attrs: nounwind uwtable
define internal noundef i32 @alp_write_header(ptr noundef readonly captures(none) %0) #1 {
  %2 = getelementptr inbounds nuw i8, ptr %0, i64 24
  %3 = load ptr, ptr %2, align 8, !tbaa !12
  %4 = getelementptr inbounds nuw i8, ptr %0, i64 48
  %5 = load ptr, ptr %4, align 8, !tbaa !51
  %6 = load ptr, ptr %5, align 8, !tbaa !52
  %7 = getelementptr inbounds nuw i8, ptr %6, i64 16
  %8 = load ptr, ptr %7, align 8, !tbaa !34
  %9 = getelementptr inbounds nuw i8, ptr %0, i64 32
  %10 = load ptr, ptr %9, align 8, !tbaa !27
  tail call void @avio_wl32(ptr noundef %10, i32 noundef 542133313) #5
  %11 = load ptr, ptr %9, align 8, !tbaa !27
  %12 = getelementptr inbounds nuw i8, ptr %3, i64 8
  %13 = load i32, ptr %12, align 8, !tbaa !57
  %14 = icmp eq i32 %13, 2
  %15 = select i1 %14, i32 12, i32 8
  tail call void @avio_wl32(ptr noundef %11, i32 noundef %15) #5
  %16 = load ptr, ptr %9, align 8, !tbaa !27
  tail call void @avio_write(ptr noundef %16, ptr noundef nonnull @.str.3, i32 noundef 6) #5
  %17 = load ptr, ptr %9, align 8, !tbaa !27
  tail call void @avio_w8(ptr noundef %17, i32 noundef 0) #5
  %18 = load ptr, ptr %9, align 8, !tbaa !27
  %19 = getelementptr inbounds nuw i8, ptr %8, i64 132
  %20 = load i32, ptr %19, align 4, !tbaa !49
  tail call void @avio_w8(ptr noundef %18, i32 noundef %20) #5
  %21 = load i32, ptr %12, align 8, !tbaa !57
  %22 = icmp eq i32 %21, 2
  br i1 %22, label %23, label %27

23:                                               ; preds = %1
  %24 = load ptr, ptr %9, align 8, !tbaa !27
  %25 = getelementptr inbounds nuw i8, ptr %8, i64 152
  %26 = load i32, ptr %25, align 8, !tbaa !46
  tail call void @avio_wl32(ptr noundef %24, i32 noundef %26) #5
  br label %27

27:                                               ; preds = %23, %1
  ret i32 0
}